; Function Attrs: mustprogress nofree norecurse nosync nounwind willreturn memory(read, argmem: readwrite, inaccessiblemem: none) uwtable
define internal noundef zeroext i1 @"_ZNSt17_Function_handlerIFbP4exprRS1_S2_EZN12seq_rewriter24mk_regex_union_normalizeES1_S1_E3$_0E9_M_invokeERKSt9_Any_dataOS1_S2_S2_"(ptr noundef nonnull readonly align 8 captures(none) dereferenceable(16) %0, ptr noundef nonnull readonly align 8 captures(none) dereferenceable(8) %1, ptr noundef nonnull writeonly align 8 captures(none) dereferenceable(8) %2, ptr noundef nonnull writeonly align 8 captures(none) dereferenceable(8) %3) #22 align 2 {
  %.val = load ptr, ptr %0, align 8, !tbaa !1017
  %.val4 = load ptr, ptr %1, align 8, !tbaa !3
  %5 = getelementptr i8, ptr %.val, i64 72
  %.val.val = load i32, ptr %5, align 8, !tbaa !87
  %6 = getelementptr inbounds nuw i8, ptr %.val4, i64 4
  %7 = load i32, ptr %6, align 4
  %8 = and i32 %7, 65535
  %9 = icmp eq i32 %8, 0
  br i1 %9, label %10, label %"_ZSt10__invoke_rIbRZN12seq_rewriter24mk_regex_union_normalizeEP4exprS2_E3$_0JS2_RS2_S5_EENSt9enable_ifIX16is_invocable_r_vIT_T0_DpT1_EES7_E4typeEOS8_DpOS9_.exit"

10:                                               ; preds = %4
  %11 = getelementptr inbounds nuw i8, ptr %.val4, i64 16
  %12 = load ptr, ptr %11, align 8, !tbaa !202
  %13 = getelementptr inbounds nuw i8, ptr %12, i64 24
  %14 = load ptr, ptr %13, align 8, !tbaa !207
  %.not.i.i.i.i.i.i.i.i = icmp eq ptr %14, null
  br i1 %.not.i.i.i.i.i.i.i.i, label %"_ZSt10__invoke_rIbRZN12seq_rewriter24mk_regex_union_normalizeEP4exprS2_E3$_0JS2_RS2_S5_EENSt9enable_ifIX16is_invocable_r_vIT_T0_DpT1_EES7_E4typeEOS8_DpOS9_.exit", label %_ZNK8seq_util3rex8is_unionEPK4expr.exit.i.i.i.i

_ZNK8seq_util3rex8is_unionEPK4expr.exit.i.i.i.i:  ; preds = %10
  %15 = load i32, ptr %14, align 8, !tbaa !210
  %16 = icmp eq i32 %15, %.val.val
  %17 = getelementptr inbounds nuw i8, ptr %14, i64 4
  %18 = load i32, ptr %17, align 4
  %19 = icmp eq i32 %18, 29
  %20 = select i1 %16, i1 %19, i1 false
  br i1 %20, label %21, label %"_ZSt10__invoke_rIbRZN12seq_rewriter24mk_regex_union_normalizeEP4exprS2_E3$_0JS2_RS2_S5_EENSt9enable_ifIX16is_invocable_r_vIT_T0_DpT1_EES7_E4typeEOS8_DpOS9_.exit"

21:                                               ; preds = %_ZNK8seq_util3rex8is_unionEPK4expr.exit.i.i.i.i
  %22 = getelementptr inbounds nuw i8, ptr %.val4, i64 24
  %23 = load i32, ptr %22, align 8, !tbaa !214
  %24 = icmp eq i32 %23, 2
  br i1 %24, label %25, label %"_ZSt10__invoke_rIbRZN12seq_rewriter24mk_regex_union_normalizeEP4exprS2_E3$_0JS2_RS2_S5_EENSt9enable_ifIX16is_invocable_r_vIT_T0_DpT1_EES7_E4typeEOS8_DpOS9_.exit"

25:                                               ; preds = %21
  %26 = getelementptr inbounds nuw i8, ptr %.val4, i64 32
  %27 = load ptr, ptr %26, align 8, !tbaa !3
  store ptr %27, ptr %2, align 8, !tbaa !3
  %28 = getelementptr inbounds nuw i8, ptr %.val4, i64 40
  %29 = load ptr, ptr %28, align 8, !tbaa !3
  store ptr %29, ptr %3, align 8, !tbaa !3
  br label %"_ZSt10__invoke_rIbRZN12seq_rewriter24mk_regex_union_normalizeEP4exprS2_E3$_0JS2_RS2_S5_EENSt9enable_ifIX16is_invocable_r_vIT_T0_DpT1_EES7_E4typeEOS8_DpOS9_.exit"

"_ZSt10__invoke_rIbRZN12seq_rewriter24mk_regex_union_normalizeEP4exprS2_E3$_0JS2_RS2_S5_EENSt9enable_ifIX16is_invocable_r_vIT_T0_DpT1_EES7_E4typeEOS8_DpOS9_.exit": ; preds = %4, %10, %_ZNK8seq_util3rex8is_unionEPK4expr.exit.i.i.i.i, %21, %25
  %.0.i.i.i.i = phi i1 [ true, %25 ], [ false, %21 ], [ false, %_ZNK8seq_util3rex8is_unionEPK4expr.exit.i.i.i.i ], [ false, %4 ], [ false, %10 ]
  ret i1 %.0.i.i.i.i
}